target datalayout = "e-m:e-p270:32:32-p271:32:32-p272:64:64-i64:64-i128:128-f80:128-n8:16:32:64-S128"
target triple = "x86_64-unknown-linux-gnu"

%class.symbol = type { ptr }
%class.rational = type { %class.mpq }
%class.mpq = type { %class.mpz, %class.mpz }
%class.mpz = type { i32, i8, ptr }
%class.pb2bv_rewriter = type { ptr }
%"struct.pb2bv_rewriter::imp" = type { ptr, %class.params_ref, %class.ref_vector, %class.ref_vector.0, %class.svector, i32, i32, i32, %"class.pb2bv_rewriter::imp::card_pb_rewriter" }
%class.params_ref = type { ptr }
%class.ref_vector = type { %class.ref_vector_core }
%class.ref_vector_core = type { %class.ref_manager_wrapper, %class.ptr_vector }
%class.ref_manager_wrapper = type { ptr }
%class.ptr_vector = type { %class.vector }
%class.vector = type { ptr }
%class.ref_vector.0 = type { %class.ref_vector_core.1 }
%class.ref_vector_core.1 = type { %class.ref_manager_wrapper.2, %class.ptr_vector.3 }
%class.ref_manager_wrapper.2 = type { ptr }
%class.ptr_vector.3 = type { %class.vector.4 }
%class.vector.4 = type { ptr }
%class.svector = type { %class.vector.5 }
%class.vector.5 = type { ptr }
%"class.pb2bv_rewriter::imp::card_pb_rewriter" = type { %class.rewriter_tpl, %"struct.pb2bv_rewriter::imp::card2bv_rewriter_cfg" }
%class.rewriter_tpl = type { %class.rewriter_core, ptr, i32, %class.ptr_vector, %class.var_shifter, %class.inv_var_shifter, %class.obj_ref, %class.obj_ref.17, %class.obj_ref.17, %class.svector }
%class.rewriter_core = type { ptr, ptr, i8, i8, %class.ptr_vector.6, ptr, %class.svector.8, %class.ref_vector, %class.ptr_vector.6, ptr, %class.ref_vector.10, %class.obj_hashtable, ptr, i32, %class.svector.15 }
%class.svector.8 = type { %class.vector.9 }
%class.vector.9 = type { ptr }
%class.ptr_vector.6 = type { %class.vector.7 }
%class.vector.7 = type { ptr }
%class.ref_vector.10 = type { %class.ref_vector_core.11 }
%class.ref_vector_core.11 = type { %class.ref_manager_wrapper.12, %class.ptr_vector.13 }
%class.ref_manager_wrapper.12 = type { ptr }
%class.ptr_vector.13 = type { %class.vector.14 }
%class.vector.14 = type { ptr }
%class.obj_hashtable = type { %class.core_hashtable.base, [4 x i8] }
%class.core_hashtable.base = type <{ ptr, i32, i32, i32 }>
%class.svector.15 = type { %class.vector.16 }
%class.vector.16 = type { ptr }
%class.var_shifter = type <{ %class.var_shifter_core, i32, i32, i32, [4 x i8] }>
%class.var_shifter_core = type { %class.rewriter_core }
%class.inv_var_shifter = type <{ %class.var_shifter_core, i32, [4 x i8] }>
%class.obj_ref = type { ptr, ptr }
%class.obj_ref.17 = type { ptr, ptr }
%"struct.pb2bv_rewriter::imp::card2bv_rewriter_cfg" = type { %"struct.pb2bv_rewriter::imp::card2bv_rewriter" }
%"struct.pb2bv_rewriter::imp::card2bv_rewriter" = type { %class.psort_nw, ptr, ptr, %class.arith_util, %class.pb_util, %class.bv_util, %class.ref_vector, %class.ref_vector, %class.rational, %class.vector.18, i8, %class.symbol, i32, %class.vector.18, %class.rational, %class.vector.18 }
%class.psort_nw = type { %struct.sorting_network_config, ptr, i32, %"struct.psort_nw<pb2bv_rewriter::imp::card2bv_rewriter>::stats" }
%struct.sorting_network_config = type { i32 }
%"struct.psort_nw<pb2bv_rewriter::imp::card2bv_rewriter>::stats" = type { i32, i32, i32 }
%class.arith_util = type { ptr, ptr }
%class.pb_util = type { ptr, i32, %class.vector.18, %class.vector.19, %class.rational }
%class.vector.19 = type { ptr }
%class.bv_util = type { %class.bv_recognizers, ptr, ptr }
%class.bv_recognizers = type { i32 }
%class.vector.18 = type { ptr }

@.str.45 = private unnamed_addr constant [14 x i8] c"pb-compile-bv\00", align 1
@.str.46 = private unnamed_addr constant [16 x i8] c"pb-compile-card\00", align 1
@.str.47 = private unnamed_addr constant [17 x i8] c"pb-aux-variables\00", align 1
@.str.48 = private unnamed_addr constant [15 x i8] c"pb-aux-clauses\00", align 1

; Function Attrs: mustprogress nounwind uwtable
define linkonce_odr hidden noundef i32 @_ZNK6vectorIP9func_declLb0EjE4sizeEv(ptr noundef nonnull align 8 dereferenceable(8) %this) #5 comdat align 2 {
entry:
  %retval = alloca i32, align 4
  %this.addr = alloca ptr, align 8
  store ptr %this, ptr %this.addr, align 8
  %this1 = load ptr, ptr %this.addr, align 8
  %m_data = getelementptr inbounds %class.vector.4, ptr %this1, i32 0, i32 0
  %0 = load ptr, ptr %m_data, align 8
  %cmp = icmp eq ptr %0, null
  br i1 %cmp, label %if.then, label %if.end

if.then:                                          ; preds = %entry
  store i32 0, ptr %retval, align 4
  br label %return

if.end:                                           ; preds = %entry
  %m_data2 = getelementptr inbounds %class.vector.4, ptr %this1, i32 0, i32 0
  %1 = load ptr, ptr %m_data2, align 8
  %arrayidx = getelementptr inbounds i32, ptr %1, i64 -1
  %2 = load i32, ptr %arrayidx, align 4
  store i32 %2, ptr %retval, align 4
  br label %return

return:                                           ; preds = %if.end, %if.then
  %3 = load i32, ptr %retval, align 4
  ret i32 %3
}

; Function Attrs: mustprogress nounwind uwtable
define linkonce_odr hidden noundef i32 @_ZNK15ref_vector_coreI9func_decl19ref_manager_wrapperIS0_11ast_managerEE4sizeEv(ptr noundef nonnull align 8 dereferenceable(16) %this) #5 comdat align 2 {
entry:
  %this.addr = alloca ptr, align 8
  store ptr %this, ptr %this.addr, align 8
  %this1 = load ptr, ptr %this.addr, align 8
  %m_nodes = getelementptr inbounds %class.ref_vector_core.1, ptr %this1, i32 0, i32 1
  %call = call noundef i32 @_ZNK6vectorIP9func_declLb0EjE4sizeEv(ptr noundef nonnull align 8 dereferenceable(8) %m_nodes)
  ret i32 %call
}

; Function Attrs: mustprogress uwtable
define linkonce_odr hidden void @_ZNK14pb2bv_rewriter3imp18collect_statisticsER10statistics(ptr noundef nonnull align 8 dereferenceable(904) %this, ptr noundef nonnull align 8 dereferenceable(16) %st) #4 comdat align 2 {
entry:
  %this.addr = alloca ptr, align 8
  %st.addr = alloca ptr, align 8
  store ptr %this, ptr %this.addr, align 8
  store ptr %st, ptr %st.addr, align 8
  %this1 = load ptr, ptr %this.addr, align 8
  %0 = load ptr, ptr %st.addr, align 8
  %m_compile_bv = getelementptr inbounds %"struct.pb2bv_rewriter::imp", ptr %this1, i32 0, i32 6
  %1 = load i32, ptr %m_compile_bv, align 4
  call void @_ZN10statistics6updateEPKcj(ptr noundef nonnull align 8 dereferenceable(16) %0, ptr noundef @.str.45, i32 noundef %1)
  %2 = load ptr, ptr %st.addr, align 8
  %m_compile_card = getelementptr inbounds %"struct.pb2bv_rewriter::imp", ptr %this1, i32 0, i32 7
  %3 = load i32, ptr %m_compile_card, align 8
  call void @_ZN10statistics6updateEPKcj(ptr noundef nonnull align 8 dereferenceable(16) %2, ptr noundef @.str.46, i32 noundef %3)
  %4 = load ptr, ptr %st.addr, align 8
  %m_fresh = getelementptr inbounds %"struct.pb2bv_rewriter::imp", ptr %this1, i32 0, i32 3
  %call = call noundef i32 @_ZNK15ref_vector_coreI9func_decl19ref_manager_wrapperIS0_11ast_managerEE4sizeEv(ptr noundef nonnull align 8 dereferenceable(16) %m_fresh)
  call void @_ZN10statistics6updateEPKcj(ptr noundef nonnull align 8 dereferenceable(16) %4, ptr noundef @.str.47, i32 noundef %call)
  %5 = load ptr, ptr %st.addr, align 8
  %m_rw = getelementptr inbounds %"struct.pb2bv_rewriter::imp", ptr %this1, i32 0, i32 8
  %m_cfg = getelementptr inbounds %"class.pb2bv_rewriter::imp::card_pb_rewriter", ptr %m_rw, i32 0, i32 1
  %m_r = getelementptr inbounds %"struct.pb2bv_rewriter::imp::card2bv_rewriter_cfg", ptr %m_cfg, i32 0, i32 0
  %m_sort = getelementptr inbounds %"struct.pb2bv_rewriter::imp::card2bv_rewriter", ptr %m_r, i32 0, i32 0
  %m_stats = getelementptr inbounds %class.psort_nw, ptr %m_sort, i32 0, i32 3
  %m_num_compiled_clauses = getelementptr inbounds %"struct.psort_nw<pb2bv_rewriter::imp::card2bv_rewriter>::stats", ptr %m_stats, i32 0, i32 1
  %6 = load i32, ptr %m_num_compiled_clauses, align 4
  call void @_ZN10statistics6updateEPKcj(ptr noundef nonnull align 8 dereferenceable(16) %5, ptr noundef @.str.48, i32 noundef %6)
  ret void
}

; Function Attrs: mustprogress uwtable
define hidden void @_ZNK14pb2bv_rewriter18collect_statisticsER10statistics(ptr noundef nonnull align 8 dereferenceable(8) %this, ptr noundef nonnull align 8 dereferenceable(16) %st) #4 align 2 {
entry:
  %this.addr = alloca ptr, align 8
  %st.addr = alloca ptr, align 8
  store ptr %this, ptr %this.addr, align 8
  store ptr %st, ptr %st.addr, align 8
  %this1 = load ptr, ptr %this.addr, align 8
  %m_imp = getelementptr inbounds %class.pb2bv_rewriter, ptr %this1, i32 0, i32 0
  %0 = load ptr, ptr %m_imp, align 8
  %1 = load ptr, ptr %st.addr, align 8
  call void @_ZNK14pb2bv_rewriter3imp18collect_statisticsER10statistics(ptr noundef nonnull align 8 dereferenceable(904) %0, ptr noundef nonnull align 8 dereferenceable(16) %1)
  ret void
}