; Function Attrs: mustprogress uwtable
define hidden void @_ZNK14pb2bv_rewriter18collect_statisticsER10statistics(ptr nocapture noundef nonnull readonly align 8 dereferenceable(8) %this, ptr noundef nonnull align 8 dereferenceable(16) %st) local_unnamed_addr #3 align 2 {
entry:
  %0 = load ptr, ptr %this, align 8
  %m_compile_bv.i = getelementptr inbounds i8, ptr %0, i64 60
  %1 = load i32, ptr %m_compile_bv.i, align 4
  tail call void @_ZN10statistics6updateEPKcj(ptr noundef nonnull align 8 dereferenceable(16) %st, ptr noundef nonnull @.str.45, i32 noundef %1)
  %m_compile_card.i = getelementptr inbounds i8, ptr %0, i64 64
  %2 = load i32, ptr %m_compile_card.i, align 8
  tail call void @_ZN10statistics6updateEPKcj(ptr noundef nonnull align 8 dereferenceable(16) %st, ptr noundef nonnull @.str.46, i32 noundef %2)
  %m_nodes.i.i = getelementptr inbounds i8, ptr %0, i64 40
  %3 = load ptr, ptr %m_nodes.i.i, align 8
  %cmp.i.i.i = icmp eq ptr %3, null
  br i1 %cmp.i.i.i, label %_ZNK14pb2bv_rewriter3imp18collect_statisticsER10statistics.exit, label %if.end.i.i.i

if.end.i.i.i:                                     ; preds = %entry
  %arrayidx.i.i.i = getelementptr inbounds i8, ptr %3, i64 -4
  %4 = load i32, ptr %arrayidx.i.i.i, align 4
  br label %_ZNK14pb2bv_rewriter3imp18collect_statisticsER10statistics.exit

_ZNK14pb2bv_rewriter3imp18collect_statisticsER10statistics.exit: ; preds = %entry, %if.end.i.i.i
  %retval.0.i.i.i = phi i32 [ %4, %if.end.i.i.i ], [ 0, %entry ]
  tail call void @_ZN10statistics6updateEPKcj(ptr noundef nonnull align 8 dereferenceable(16) %st, ptr noundef nonnull @.str.47, i32 noundef %retval.0.i.i.i)
  %m_num_compiled_clauses.i = getelementptr inbounds i8, ptr %0, i64 632
  %5 = load i32, ptr %m_num_compiled_clauses.i, align 4
  tail call void @_ZN10statistics6updateEPKcj(ptr noundef nonnull align 8 dereferenceable(16) %st, ptr noundef nonnull @.str.48, i32 noundef %5)
  ret void
}